target datalayout = "e-m:e-p270:32:32-p271:32:32-p272:64:64-i64:64-i128:128-f80:128-n8:16:32:64-S128"
target triple = "x86_64-pc-linux-gnu"

@.str.43 = private unnamed_addr constant [9 x i8] c"Reserved\00", align 1
@.str.339 = private unnamed_addr constant [3 x i8] c"%s\00", align 1
@.str.364 = private unnamed_addr constant [11 x i8] c"Indefinite\00", align 1
@.str.365 = private unnamed_addr constant [10 x i8] c"Immediate\00", align 1
@.str.366 = private unnamed_addr constant [76 x i8] c"Valid until mobile becomes inactive/Deliver when mobile next becomes active\00", align 1
@.str.367 = private unnamed_addr constant [65 x i8] c"Valid until registration area changes, discard if not registered\00", align 1
@.str.368 = private unnamed_addr constant [8 x i8] c"Minutes\00", align 1
@.str.369 = private unnamed_addr constant [19 x i8] c"Minutes + 12 Hours\00", align 1
@.str.370 = private unnamed_addr constant [5 x i8] c"Days\00", align 1
@.str.371 = private unnamed_addr constant [6 x i8] c"Weeks\00", align 1
@.str.372 = private unnamed_addr constant [6 x i8] c"%u %s\00", align 1

; Function Attrs: null_pointer_is_valid sspstrong uwtable
define internal void @tele_param_timestamp_rel(ptr noundef %0, ptr noundef %1, ptr noundef %2, i32 noundef %3, i32 noundef %4, i32 noundef %5) #0 {
  %7 = alloca ptr, align 8
  %8 = alloca ptr, align 8
  %9 = alloca ptr, align 8
  %10 = alloca i32, align 4
  %11 = alloca i32, align 4
  %12 = alloca i32, align 4
  %13 = alloca i8, align 1
  %14 = alloca i32, align 4
  %15 = alloca ptr, align 8
  %16 = alloca ptr, align 8
  store ptr %0, ptr %7, align 8
  store ptr %1, ptr %8, align 8
  store ptr %2, ptr %9, align 8
  store i32 %3, ptr %10, align 4
  store i32 %4, ptr %11, align 4
  store i32 %5, ptr %12, align 4
  call void @llvm.lifetime.start.p0(i64 1, ptr %13) #7
  call void @llvm.lifetime.start.p0(i64 4, ptr %14) #7
  store i32 0, ptr %14, align 4
  call void @llvm.lifetime.start.p0(i64 8, ptr %15) #7
  store ptr null, ptr %15, align 8
  call void @llvm.lifetime.start.p0(i64 8, ptr %16) #7
  store ptr null, ptr %16, align 8
  %17 = load ptr, ptr %7, align 8
  %18 = load i32, ptr %11, align 4
  %19 = call zeroext i8 @tvb_get_uint8(ptr noundef %17, i32 noundef %18)
  store i8 %19, ptr %13, align 1
  %20 = load i8, ptr %13, align 1
  %21 = zext i8 %20 to i32
  switch i32 %21, label %26 [
    i32 245, label %22
    i32 246, label %23
    i32 247, label %24
    i32 248, label %25
  ]

22:                                               ; preds = %6
  store ptr @.str.364, ptr %15, align 8
  br label %73

23:                                               ; preds = %6
  store ptr @.str.365, ptr %15, align 8
  br label %73

24:                                               ; preds = %6
  store ptr @.str.366, ptr %15, align 8
  br label %73

25:                                               ; preds = %6
  store ptr @.str.367, ptr %15, align 8
  br label %73

26:                                               ; preds = %6
  %27 = load i8, ptr %13, align 1
  %28 = zext i8 %27 to i32
  %29 = icmp sle i32 %28, 143
  br i1 %29, label %30, label %35

30:                                               ; preds = %26
  %31 = load i8, ptr %13, align 1
  %32 = zext i8 %31 to i32
  %33 = add i32 %32, 1
  %34 = mul i32 %33, 5
  store i32 %34, ptr %14, align 4
  store ptr @.str.368, ptr %16, align 8
  br label %73

35:                                               ; preds = %26
  %36 = load i8, ptr %13, align 1
  %37 = zext i8 %36 to i32
  %38 = icmp sge i32 %37, 144
  br i1 %38, label %39, label %48

39:                                               ; preds = %35
  %40 = load i8, ptr %13, align 1
  %41 = zext i8 %40 to i32
  %42 = icmp sle i32 %41, 167
  br i1 %42, label %43, label %48

43:                                               ; preds = %39
  %44 = load i8, ptr %13, align 1
  %45 = zext i8 %44 to i32
  %46 = sub i32 %45, 143
  %47 = mul i32 %46, 30
  store i32 %47, ptr %14, align 4
  store ptr @.str.369, ptr %16, align 8
  br label %73

48:                                               ; preds = %39, %35
  %49 = load i8, ptr %13, align 1
  %50 = zext i8 %49 to i32
  %51 = icmp sge i32 %50, 168
  br i1 %51, label %52, label %60

52:                                               ; preds = %48
  %53 = load i8, ptr %13, align 1
  %54 = zext i8 %53 to i32
  %55 = icmp sle i32 %54, 196
  br i1 %55, label %56, label %60

56:                                               ; preds = %52
  %57 = load i8, ptr %13, align 1
  %58 = zext i8 %57 to i32
  %59 = sub i32 %58, 166
  store i32 %59, ptr %14, align 4
  store ptr @.str.370, ptr %16, align 8
  br label %73

60:                                               ; preds = %52, %48
  %61 = load i8, ptr %13, align 1
  %62 = zext i8 %61 to i32
  %63 = icmp sge i32 %62, 197
  br i1 %63, label %64, label %72

64:                                               ; preds = %60
  %65 = load i8, ptr %13, align 1
  %66 = zext i8 %65 to i32
  %67 = icmp sle i32 %66, 244
  br i1 %67, label %68, label %72

68:                                               ; preds = %64
  %69 = load i8, ptr %13, align 1
  %70 = zext i8 %69 to i32
  %71 = sub i32 %70, 192
  store i32 %71, ptr %14, align 4
  store ptr @.str.371, ptr %16, align 8
  br label %73

72:                                               ; preds = %64, %60
  store ptr @.str.43, ptr %15, align 8
  br label %73

73:                                               ; preds = %72, %68, %56, %43, %30, %25, %24, %23, %22
  %74 = load ptr, ptr %15, align 8
  %75 = icmp ne ptr %74, null
  br i1 %75, label %76, label %85

76:                                               ; preds = %73
  %77 = load ptr, ptr %9, align 8
  %78 = load i32, ptr %12, align 4
  %79 = load ptr, ptr %7, align 8
  %80 = load i32, ptr %11, align 4
  %81 = load i8, ptr %13, align 1
  %82 = zext i8 %81 to i32
  %83 = load ptr, ptr %15, align 8
  %84 = call ptr (ptr, i32, ptr, i32, i32, i32, ptr, ...) @proto_tree_add_uint_format_value(ptr noundef %77, i32 noundef %78, ptr noundef %79, i32 noundef %80, i32 noundef 1, i32 noundef %82, ptr noundef @.str.339, ptr noundef %83)
  br label %95

85:                                               ; preds = %73
  %86 = load ptr, ptr %9, align 8
  %87 = load i32, ptr %12, align 4
  %88 = load ptr, ptr %7, align 8
  %89 = load i32, ptr %11, align 4
  %90 = load i8, ptr %13, align 1
  %91 = zext i8 %90 to i32
  %92 = load i32, ptr %14, align 4
  %93 = load ptr, ptr %16, align 8
  %94 = call ptr (ptr, i32, ptr, i32, i32, i32, ptr, ...) @proto_tree_add_uint_format_value(ptr noundef %86, i32 noundef %87, ptr noundef %88, i32 noundef %89, i32 noundef 1, i32 noundef %91, ptr noundef @.str.372, i32 noundef %92, ptr noundef %93)
  br label %95

95:                                               ; preds = %85, %76
  call void @llvm.lifetime.end.p0(i64 8, ptr %16) #7
  call void @llvm.lifetime.end.p0(i64 8, ptr %15) #7
  call void @llvm.lifetime.end.p0(i64 4, ptr %14) #7
  call void @llvm.lifetime.end.p0(i64 1, ptr %13) #7
  ret void
}