; Function Attrs: null_pointer_is_valid sspstrong uwtable
define internal fastcc void @tele_param_timestamp_rel(ptr noundef %0, ptr noundef %1, i32 noundef %2, i32 noundef %3) unnamed_addr #0 {
  %5 = tail call zeroext i8 @tvb_get_uint8(ptr noundef %0, i32 noundef %2)
  %6 = zext i8 %5 to i32
  %switch.tableidx = add i8 %5, 11
  %7 = icmp ult i8 %switch.tableidx, 4
  br i1 %7, label %switch.lookup, label %8

8:                                                ; preds = %4
  %9 = icmp ult i8 %5, -112
  br i1 %9, label %10, label %13

10:                                               ; preds = %8
  %11 = mul nuw nsw i32 %6, 5
  %12 = add nuw nsw i32 %11, 5
  br label %29

13:                                               ; preds = %8
  %14 = icmp samesign ult i8 %5, -88
  br i1 %14, label %15, label %18

15:                                               ; preds = %13
  %16 = mul nuw nsw i32 %6, 30
  %17 = add nsw i32 %16, -4290
  br label %29

18:                                               ; preds = %13
  %19 = icmp samesign ult i8 %5, -59
  br i1 %19, label %20, label %22

20:                                               ; preds = %18
  %21 = add nsw i32 %6, -166
  br label %29

22:                                               ; preds = %18
  %23 = icmp samesign ult i8 %5, -11
  br i1 %23, label %24, label %27

24:                                               ; preds = %22
  %25 = add nsw i32 %6, -192
  br label %29

switch.lookup:                                    ; preds = %4
  %26 = zext nneg i8 %switch.tableidx to i64
  %switch.gep = getelementptr inbounds nuw [4 x ptr], ptr @switch.table.tele_param_timestamp_rel, i64 0, i64 %26
  %switch.load = load ptr, ptr %switch.gep, align 8
  br label %27

27:                                               ; preds = %switch.lookup, %22
  %.035.ph = phi ptr [ @.str.43, %22 ], [ %switch.load, %switch.lookup ]
  %28 = tail call ptr (ptr, i32, ptr, i32, i32, i32, ptr, ...) @proto_tree_add_uint_format_value(ptr noundef %1, i32 noundef %3, ptr noundef %0, i32 noundef %2, i32 noundef 1, i32 noundef %6, ptr noundef nonnull @.str.339, ptr noundef nonnull %.035.ph)
  br label %31

29:                                               ; preds = %10, %15, %20, %24
  %.036 = phi i32 [ %12, %10 ], [ %17, %15 ], [ %21, %20 ], [ %25, %24 ]
  %.0 = phi ptr [ @.str.368, %10 ], [ @.str.369, %15 ], [ @.str.370, %20 ], [ @.str.371, %24 ]
  %30 = tail call ptr (ptr, i32, ptr, i32, i32, i32, ptr, ...) @proto_tree_add_uint_format_value(ptr noundef %1, i32 noundef %3, ptr noundef %0, i32 noundef %2, i32 noundef 1, i32 noundef %6, ptr noundef nonnull @.str.372, i32 noundef %.036, ptr noundef nonnull %.0)
  br label %31

31:                                               ; preds = %29, %27
  ret void
}